; ModuleID = '55/1774.cpp'
source_filename = "55/1774.cpp"
target datalayout = "e-m:e-p270:32:32-p271:32:32-p272:64:64-i64:64-f80:128-n8:16:32:64-S128"
target triple = "x86_64-pc-linux-gnu"

%"class.std::ios_base::Init" = type { i8 }
%"class.std::basic_istream" = type { i32 (...)**, i64, %"class.std::basic_ios" }
%"class.std::basic_ios" = type { %"class.std::ios_base", %"class.std::basic_ostream"*, i8, i8, %"class.std::basic_streambuf"*, %"class.std::ctype"*, %"class.std::num_put"*, %"class.std::num_get"* }
%"class.std::ios_base" = type { i32 (...)**, i64, i64, i32, i32, i32, %"struct.std::ios_base::_Callback_list"*, %"struct.std::ios_base::_Words", [8 x %"struct.std::ios_base::_Words"], i32, %"struct.std::ios_base::_Words"*, %"class.std::locale" }
%"struct.std::ios_base::_Callback_list" = type { %"struct.std::ios_base::_Callback_list"*, void (i32, %"class.std::ios_base"*, i32)*, i32, i32 }
%"struct.std::ios_base::_Words" = type { i8*, i64 }
%"class.std::locale" = type { %"class.std::locale::_Impl"* }
%"class.std::locale::_Impl" = type { i32, %"class.std::locale::facet"**, i64, %"class.std::locale::facet"**, i8** }
%"class.std::locale::facet" = type <{ i32 (...)**, i32, [4 x i8] }>
%"class.std::basic_ostream" = type { i32 (...)**, %"class.std::basic_ios" }
%"class.std::basic_streambuf" = type { i32 (...)**, i8*, i8*, i8*, i8*, i8*, i8*, %"class.std::locale" }
%"class.std::ctype" = type <{ %"class.std::locale::facet.base", [4 x i8], %struct.__locale_struct*, i8, [7 x i8], i32*, i32*, i16*, i8, [256 x i8], [256 x i8], i8, [6 x i8] }>
%"class.std::locale::facet.base" = type <{ i32 (...)**, i32 }>
%struct.__locale_struct = type { [13 x %struct.__locale_data*], i16*, i32*, i32*, [13 x i8*] }
%struct.__locale_data = type opaque
%"class.std::num_put" = type { %"class.std::locale::facet.base", [4 x i8] }
%"class.std::num_get" = type { %"class.std::locale::facet.base", [4 x i8] }

@_ZStL8__ioinit = internal global %"class.std::ios_base::Init" zeroinitializer, align 1
@__dso_handle = external hidden global i8
@_ZSt3cin = external dso_local global %"class.std::basic_istream", align 8
@_ZSt4cout = external dso_local global %"class.std::basic_ostream", align 8
@llvm.global_ctors = appending global [1 x { i32, void ()*, i8* }] [{ i32, void ()*, i8* } { i32 65535, void ()* @_GLOBAL__sub_I_1774.cpp, i8* null }]

; Function Attrs: noinline uwtable
define internal void @__cxx_global_var_init() #0 section ".text.startup" {
  call void @_ZNSt8ios_base4InitC1Ev(%"class.std::ios_base::Init"* @_ZStL8__ioinit)
  %1 = call i32 @__cxa_atexit(void (i8*)* bitcast (void (%"class.std::ios_base::Init"*)* @_ZNSt8ios_base4InitD1Ev to void (i8*)*), i8* getelementptr inbounds (%"class.std::ios_base::Init", %"class.std::ios_base::Init"* @_ZStL8__ioinit, i32 0, i32 0), i8* @__dso_handle) #3
  ret void
}

declare dso_local void @_ZNSt8ios_base4InitC1Ev(%"class.std::ios_base::Init"*) unnamed_addr #1

; Function Attrs: nounwind
declare dso_local void @_ZNSt8ios_base4InitD1Ev(%"class.std::ios_base::Init"*) unnamed_addr #2

; Function Attrs: nounwind
declare dso_local i32 @__cxa_atexit(void (i8*)*, i8*, i8*) #3

; Function Attrs: noinline norecurse uwtable
define dso_local i32 @main() #4 {
  %1 = alloca i32, align 4
  %2 = alloca [50 x i8], align 16
  %3 = alloca [50 x i8], align 16
  %4 = alloca [36 x i8], align 16
  %5 = alloca i32, align 4
  %6 = alloca i32, align 4
  %7 = alloca i32, align 4
  %8 = alloca i32, align 4
  %9 = alloca i32, align 4
  %10 = alloca i64, align 8
  store i32 0, i32* %1, align 4
  %11 = bitcast [50 x i8]* %3 to i8*
  call void @llvm.memset.p0i8.i64(i8* align 16 %11, i8 0, i64 50, i1 false)
  store i64 0, i64* %10, align 8
  store i32 0, i32* %7, align 4
  br label %12

12:                                               ; preds = %22, %0
  %13 = load i32, i32* %7, align 4
  %14 = icmp slt i32 %13, 10
  br i1 %14, label %15, label %25

15:                                               ; preds = %12
  %16 = load i32, i32* %7, align 4
  %17 = add nsw i32 48, %16
  %18 = trunc i32 %17 to i8
  %19 = load i32, i32* %7, align 4
  %20 = sext i32 %19 to i64
  %21 = getelementptr inbounds [36 x i8], [36 x i8]* %4, i64 0, i64 %20
  store i8 %18, i8* %21, align 1
  br label %22

22:                                               ; preds = %15
  %23 = load i32, i32* %7, align 4
  %24 = add nsw i32 %23, 1
  store i32 %24, i32* %7, align 4
  br label %12

25:                                               ; preds = %12
  store i32 10, i32* %7, align 4
  br label %26

26:                                               ; preds = %37, %25
  %27 = load i32, i32* %7, align 4
  %28 = icmp slt i32 %27, 36
  br i1 %28, label %29, label %40

29:                                               ; preds = %26
  %30 = load i32, i32* %7, align 4
  %31 = add nsw i32 65, %30
  %32 = sub nsw i32 %31, 10
  %33 = trunc i32 %32 to i8
  %34 = load i32, i32* %7, align 4
  %35 = sext i32 %34 to i64
  %36 = getelementptr inbounds [36 x i8], [36 x i8]* %4, i64 0, i64 %35
  store i8 %33, i8* %36, align 1
  br label %37

37:                                               ; preds = %29
  %38 = load i32, i32* %7, align 4
  %39 = add nsw i32 %38, 1
  store i32 %39, i32* %7, align 4
  br label %26

40:                                               ; preds = %26
  %41 = call dereferenceable(280) %"class.std::basic_istream"* @_ZNSirsERi(%"class.std::basic_istream"* @_ZSt3cin, i32* dereferenceable(4) %5)
  %42 = getelementptr inbounds [50 x i8], [50 x i8]* %2, i64 0, i64 0
  %43 = call dereferenceable(280) %"class.std::basic_istream"* @_ZStrsIcSt11char_traitsIcEERSt13basic_istreamIT_T0_ES6_PS3_(%"class.std::basic_istream"* dereferenceable(280) %41, i8* %42)
  %44 = call dereferenceable(280) %"class.std::basic_istream"* @_ZNSirsERi(%"class.std::basic_istream"* %43, i32* dereferenceable(4) %6)
  store i32 0, i32* %7, align 4
  br label %45

45:                                               ; preds = %127, %40
  %46 = load i32, i32* %7, align 4
  %47 = sext i32 %46 to i64
  %48 = getelementptr inbounds [50 x i8], [50 x i8]* %2, i64 0, i64 %47
  %49 = load i8, i8* %48, align 1
  %50 = sext i8 %49 to i32
  %51 = icmp ne i32 %50, 0
  br i1 %51, label %52, label %130

52:                                               ; preds = %45
  %53 = load i32, i32* %7, align 4
  %54 = sext i32 %53 to i64
  %55 = getelementptr inbounds [50 x i8], [50 x i8]* %2, i64 0, i64 %54
  %56 = load i8, i8* %55, align 1
  %57 = sext i8 %56 to i32
  %58 = icmp sge i32 %57, 48
  br i1 %58, label %59, label %73

59:                                               ; preds = %52
  %60 = load i32, i32* %7, align 4
  %61 = sext i32 %60 to i64
  %62 = getelementptr inbounds [50 x i8], [50 x i8]* %2, i64 0, i64 %61
  %63 = load i8, i8* %62, align 1
  %64 = sext i8 %63 to i32
  %65 = icmp sle i32 %64, 57
  br i1 %65, label %66, label %73

66:                                               ; preds = %59
  %67 = load i32, i32* %7, align 4
  %68 = sext i32 %67 to i64
  %69 = getelementptr inbounds [50 x i8], [50 x i8]* %2, i64 0, i64 %68
  %70 = load i8, i8* %69, align 1
  %71 = sext i8 %70 to i32
  %72 = sub nsw i32 %71, 48
  store i32 %72, i32* %8, align 4
  br label %119

73:                                               ; preds = %59, %52
  %74 = load i32, i32* %7, align 4
  %75 = sext i32 %74 to i64
  %76 = getelementptr inbounds [50 x i8], [50 x i8]* %2, i64 0, i64 %75
  %77 = load i8, i8* %76, align 1
  %78 = sext i8 %77 to i32
  %79 = icmp sge i32 %78, 97
  br i1 %79, label %80, label %95

80:                                               ; preds = %73
  %81 = load i32, i32* %7, align 4
  %82 = sext i32 %81 to i64
  %83 = getelementptr inbounds [50 x i8], [50 x i8]* %2, i64 0, i64 %82
  %84 = load i8, i8* %83, align 1
  %85 = sext i8 %84 to i32
  %86 = icmp sle i32 %85, 122
  br i1 %86, label %87, label %95

87:                                               ; preds = %80
  %88 = load i32, i32* %7, align 4
  %89 = sext i32 %88 to i64
  %90 = getelementptr inbounds [50 x i8], [50 x i8]* %2, i64 0, i64 %89
  %91 = load i8, i8* %90, align 1
  %92 = sext i8 %91 to i32
  %93 = sub nsw i32 %92, 97
  %94 = add nsw i32 %93, 10
  store i32 %94, i32* %8, align 4
  br label %118

95:                                               ; preds = %80, %73
  %96 = load i32, i32* %7, align 4
  %97 = sext i32 %96 to i64
  %98 = getelementptr inbounds [50 x i8], [50 x i8]* %2, i64 0, i64 %97
  %99 = load i8, i8* %98, align 1
  %100 = sext i8 %99 to i32
  %101 = icmp sge i32 %100, 65
  br i1 %101, label %102, label %117

102:                                              ; preds = %95
  %103 = load i32, i32* %7, align 4
  %104 = sext i32 %103 to i64
  %105 = getelementptr inbounds [50 x i8], [50 x i8]* %2, i64 0, i64 %104
  %106 = load i8, i8* %105, align 1
  %107 = sext i8 %106 to i32
  %108 = icmp sle i32 %107, 90
  br i1 %108, label %109, label %117

109:                                              ; preds = %102
  %110 = load i32, i32* %7, align 4
  %111 = sext i32 %110 to i64
  %112 = getelementptr inbounds [50 x i8], [50 x i8]* %2, i64 0, i64 %111
  %113 = load i8, i8* %112, align 1
  %114 = sext i8 %113 to i32
  %115 = sub nsw i32 %114, 65
  %116 = add nsw i32 %115, 10
  store i32 %116, i32* %8, align 4
  br label %117

117:                                              ; preds = %109, %102, %95
  br label %118

118:                                              ; preds = %117, %87
  br label %119

119:                                              ; preds = %118, %66
  %120 = load i64, i64* %10, align 8
  %121 = load i32, i32* %5, align 4
  %122 = sext i32 %121 to i64
  %123 = mul nsw i64 %120, %122
  %124 = load i32, i32* %8, align 4
  %125 = sext i32 %124 to i64
  %126 = add nsw i64 %123, %125
  store i64 %126, i64* %10, align 8
  br label %127

127:                                              ; preds = %119
  %128 = load i32, i32* %7, align 4
  %129 = add nsw i32 %128, 1
  store i32 %129, i32* %7, align 4
  br label %45

130:                                              ; preds = %45
  store i32 0, i32* %7, align 4
  br label %131

131:                                              ; preds = %146, %130
  %132 = load i64, i64* %10, align 8
  %133 = load i32, i32* %6, align 4
  %134 = sext i32 %133 to i64
  %135 = srem i64 %132, %134
  %136 = getelementptr inbounds [36 x i8], [36 x i8]* %4, i64 0, i64 %135
  %137 = load i8, i8* %136, align 1
  %138 = load i32, i32* %7, align 4
  %139 = add nsw i32 %138, 1
  store i32 %139, i32* %7, align 4
  %140 = sext i32 %138 to i64
  %141 = getelementptr inbounds [50 x i8], [50 x i8]* %3, i64 0, i64 %140
  store i8 %137, i8* %141, align 1
  %142 = load i64, i64* %10, align 8
  %143 = load i32, i32* %6, align 4
  %144 = sext i32 %143 to i64
  %145 = sdiv i64 %142, %144
  store i64 %145, i64* %10, align 8
  br label %146

146:                                              ; preds = %131
  %147 = load i64, i64* %10, align 8
  %148 = icmp ne i64 %147, 0
  br i1 %148, label %131, label %149

149:                                              ; preds = %146
  %150 = getelementptr inbounds [50 x i8], [50 x i8]* %3, i64 0, i64 0
  %151 = call i64 @strlen(i8* %150) #7
  %152 = trunc i64 %151 to i32
  store i32 %152, i32* %9, align 4
  %153 = load i32, i32* %9, align 4
  %154 = sub nsw i32 %153, 1
  store i32 %154, i32* %7, align 4
  br label %155

155:                                              ; preds = %164, %149
  %156 = load i32, i32* %7, align 4
  %157 = icmp sge i32 %156, 0
  br i1 %157, label %158, label %167

158:                                              ; preds = %155
  %159 = load i32, i32* %7, align 4
  %160 = sext i32 %159 to i64
  %161 = getelementptr inbounds [50 x i8], [50 x i8]* %3, i64 0, i64 %160
  %162 = load i8, i8* %161, align 1
  %163 = call dereferenceable(272) %"class.std::basic_ostream"* @_ZStlsISt11char_traitsIcEERSt13basic_ostreamIcT_ES5_c(%"class.std::basic_ostream"* dereferenceable(272) @_ZSt4cout, i8 signext %162)
  br label %164

164:                                              ; preds = %158
  %165 = load i32, i32* %7, align 4
  %166 = add nsw i32 %165, -1
  store i32 %166, i32* %7, align 4
  br label %155

167:                                              ; preds = %155
  ret i32 0
}

; Function Attrs: argmemonly nounwind willreturn
declare void @llvm.memset.p0i8.i64(i8* nocapture writeonly, i8, i64, i1 immarg) #5

declare dso_local dereferenceable(280) %"class.std::basic_istream"* @_ZStrsIcSt11char_traitsIcEERSt13basic_istreamIT_T0_ES6_PS3_(%"class.std::basic_istream"* dereferenceable(280), i8*) #1

declare dso_local dereferenceable(280) %"class.std::basic_istream"* @_ZNSirsERi(%"class.std::basic_istream"*, i32* dereferenceable(4)) #1

; Function Attrs: nounwind readonly
declare dso_local i64 @strlen(i8*) #6

declare dso_local dereferenceable(272) %"class.std::basic_ostream"* @_ZStlsISt11char_traitsIcEERSt13basic_ostreamIcT_ES5_c(%"class.std::basic_ostream"* dereferenceable(272), i8 signext) #1

; Function Attrs: noinline uwtable
define internal void @_GLOBAL__sub_I_1774.cpp() #0 section ".text.startup" {
  call void @__cxx_global_var_init()
  ret void
}


!llvm.module.flags = !{!0}
!llvm.ident = !{!1}

!0 = !{i32 1, !"wchar_size", i32 4}
!1 = !{!"clang version 10.0.0-4ubuntu1 "}
