; ModuleID = 'source-C-CXX/54/1774.cpp'
source_filename = "source-C-CXX/54/1774.cpp"
target datalayout = "e-m:e-p270:32:32-p271:32:32-p272:64:64-i64:64-f80:128-n8:16:32:64-S128"
target triple = "x86_64-pc-linux-gnu"

%"class.std::ios_base::Init" = type { i8 }
%"class.std::basic_istream" = type { i32 (...)**, i64, %"class.std::basic_ios" }
%"class.std::basic_ios" = type { %"class.std::ios_base", %"class.std::basic_ostream"*, i8, i8, %"class.std::basic_streambuf"*, %"class.std::ctype"*, %"class.std::num_put"*, %"class.std::num_get"* }
%"class.std::ios_base" = type { i32 (...)**, i64, i64, i32, i32, i32, %"struct.std::ios_base::_Callback_list"*, %"struct.std::ios_base::_Words", [8 x %"struct.std::ios_base::_Words"], i32, %"struct.std::ios_base::_Words"*, %"class.std::locale" }
%"struct.std::ios_base::_Callback_list" = type { %"struct.std::ios_base::_Callback_list"*, void (i32, %"class.std::ios_base"*, i32)*, i32, i32 }
%"struct.std::ios_base::_Words" = type { i8*, i64 }
%"class.std::locale" = type { %"class.std::locale::_Impl"* }
%"class.std::locale::_Impl" = type { i32, %"class.std::locale::facet"**, i64, %"class.std::locale::facet"**, i8** }
%"class.std::locale::facet" = type <{ i32 (...)**, i32, [4 x i8] }>
%"class.std::basic_ostream" = type { i32 (...)**, %"class.std::basic_ios" }
%"class.std::basic_streambuf" = type { i32 (...)**, i8*, i8*, i8*, i8*, i8*, i8*, %"class.std::locale" }
%"class.std::ctype" = type <{ %"class.std::locale::facet.base", [4 x i8], %struct.__locale_struct*, i8, [7 x i8], i32*, i32*, i16*, i8, [256 x i8], [256 x i8], i8, [6 x i8] }>
%"class.std::locale::facet.base" = type <{ i32 (...)**, i32 }>
%struct.__locale_struct = type { [13 x %struct.__locale_data*], i16*, i32*, i32*, [13 x i8*] }
%struct.__locale_data = type opaque
%"class.std::num_put" = type { %"class.std::locale::facet.base", [4 x i8] }
%"class.std::num_get" = type { %"class.std::locale::facet.base", [4 x i8] }

@_ZStL8__ioinit = internal global %"class.std::ios_base::Init" zeroinitializer, align 1
@__dso_handle = external hidden global i8
@_ZSt3cin = external global %"class.std::basic_istream", align 8
@_ZSt4cout = external global %"class.std::basic_ostream", align 8
@llvm.global_ctors = appending global [1 x { i32, void ()*, i8* }] [{ i32, void ()*, i8* } { i32 65535, void ()* @_GLOBAL__sub_I_1774.cpp, i8* null }]

declare void @_ZNSt8ios_base4InitC1Ev(%"class.std::ios_base::Init"* nonnull align 1 dereferenceable(1)) unnamed_addr #0

; Function Attrs: nounwind
declare void @_ZNSt8ios_base4InitD1Ev(%"class.std::ios_base::Init"* nonnull align 1 dereferenceable(1)) unnamed_addr #1

; Function Attrs: nofree nounwind
declare i32 @__cxa_atexit(void (i8*)*, i8*, i8*) local_unnamed_addr #2

; Function Attrs: mustprogress norecurse sspstrong uwtable
define dso_local i32 @main() local_unnamed_addr #3 {
  %1 = alloca i8, align 1
  %2 = alloca [50 x i8], align 16
  %3 = alloca [50 x i8], align 16
  %4 = alloca [36 x i8], align 16
  %5 = alloca i32, align 4
  %6 = alloca i32, align 4
  %7 = getelementptr inbounds [50 x i8], [50 x i8]* %2, i64 0, i64 0
  call void @llvm.lifetime.start.p0i8(i64 50, i8* nonnull %7) #8
  %8 = getelementptr inbounds [50 x i8], [50 x i8]* %3, i64 0, i64 0
  call void @llvm.lifetime.start.p0i8(i64 50, i8* nonnull %8) #8
  call void @llvm.memset.p0i8.i64(i8* noundef nonnull align 16 dereferenceable(50) %8, i8 0, i64 50, i1 false)
  %9 = getelementptr inbounds [36 x i8], [36 x i8]* %4, i64 0, i64 0
  call void @llvm.lifetime.start.p0i8(i64 36, i8* nonnull %9) #8
  %10 = bitcast i32* %5 to i8*
  call void @llvm.lifetime.start.p0i8(i64 4, i8* nonnull %10) #8
  %11 = bitcast i32* %6 to i8*
  call void @llvm.lifetime.start.p0i8(i64 4, i8* nonnull %11) #8
  %12 = bitcast [36 x i8]* %4 to <16 x i8>*
  store <16 x i8> <i8 48, i8 49, i8 50, i8 51, i8 52, i8 53, i8 54, i8 55, i8 56, i8 57, i8 65, i8 66, i8 67, i8 68, i8 69, i8 70>, <16 x i8>* %12, align 16, !tbaa !5
  %13 = getelementptr inbounds [36 x i8], [36 x i8]* %4, i64 0, i64 16
  %14 = bitcast i8* %13 to <16 x i8>*
  store <16 x i8> <i8 71, i8 72, i8 73, i8 74, i8 75, i8 76, i8 77, i8 78, i8 79, i8 80, i8 81, i8 82, i8 83, i8 84, i8 85, i8 86>, <16 x i8>* %14, align 16, !tbaa !5
  %15 = getelementptr inbounds [36 x i8], [36 x i8]* %4, i64 0, i64 32
  store i8 87, i8* %15, align 16, !tbaa !5
  %16 = getelementptr inbounds [36 x i8], [36 x i8]* %4, i64 0, i64 33
  store i8 88, i8* %16, align 1, !tbaa !5
  %17 = getelementptr inbounds [36 x i8], [36 x i8]* %4, i64 0, i64 34
  store i8 89, i8* %17, align 2, !tbaa !5
  %18 = getelementptr inbounds [36 x i8], [36 x i8]* %4, i64 0, i64 35
  store i8 90, i8* %18, align 1, !tbaa !5
  %19 = call nonnull align 8 dereferenceable(16) %"class.std::basic_istream"* @_ZNSirsERi(%"class.std::basic_istream"* nonnull align 8 dereferenceable(16) @_ZSt3cin, i32* nonnull align 4 dereferenceable(4) %5)
  call void @_ZSt17__istream_extractRSiPcl(%"class.std::basic_istream"* nonnull align 8 dereferenceable(16) %19, i8* nonnull %7, i64 50)
  %20 = call nonnull align 8 dereferenceable(16) %"class.std::basic_istream"* @_ZNSirsERi(%"class.std::basic_istream"* nonnull align 8 dereferenceable(16) %19, i32* nonnull align 4 dereferenceable(4) %6)
  %21 = load i32, i32* %5, align 4
  %22 = sext i32 %21 to i64
  %23 = load i8, i8* %7, align 16, !tbaa !5
  %24 = icmp eq i8 %23, 0
  br i1 %24, label %25, label %29

25:                                               ; preds = %49, %0
  %26 = phi i64 [ 0, %0 ], [ %53, %49 ]
  %27 = load i32, i32* %6, align 4, !tbaa !8
  %28 = sext i32 %27 to i64
  br label %58

29:                                               ; preds = %0, %49
  %30 = phi i64 [ %54, %49 ], [ 0, %0 ]
  %31 = phi i8 [ %56, %49 ], [ %23, %0 ]
  %32 = phi i64 [ %53, %49 ], [ 0, %0 ]
  %33 = phi i32 [ %50, %49 ], [ undef, %0 ]
  %34 = sext i8 %31 to i32
  %35 = add i8 %31, -48
  %36 = icmp ult i8 %35, 10
  br i1 %36, label %37, label %39

37:                                               ; preds = %29
  %38 = add nsw i32 %34, -48
  br label %49

39:                                               ; preds = %29
  %40 = add i8 %31, -97
  %41 = icmp ult i8 %40, 26
  br i1 %41, label %42, label %44

42:                                               ; preds = %39
  %43 = add nsw i32 %34, -87
  br label %49

44:                                               ; preds = %39
  %45 = add i8 %31, -65
  %46 = icmp ult i8 %45, 26
  %47 = add nsw i32 %34, -55
  %48 = select i1 %46, i32 %47, i32 %33
  br label %49

49:                                               ; preds = %44, %42, %37
  %50 = phi i32 [ %38, %37 ], [ %43, %42 ], [ %48, %44 ]
  %51 = mul nsw i64 %32, %22
  %52 = sext i32 %50 to i64
  %53 = add nsw i64 %51, %52
  %54 = add nuw i64 %30, 1
  %55 = getelementptr inbounds [50 x i8], [50 x i8]* %2, i64 0, i64 %54
  %56 = load i8, i8* %55, align 1, !tbaa !5
  %57 = icmp eq i8 %56, 0
  br i1 %57, label %25, label %29, !llvm.loop !10

58:                                               ; preds = %25, %58
  %59 = phi i64 [ 0, %25 ], [ %64, %58 ]
  %60 = phi i64 [ %26, %25 ], [ %66, %58 ]
  %61 = srem i64 %60, %28
  %62 = getelementptr inbounds [36 x i8], [36 x i8]* %4, i64 0, i64 %61
  %63 = load i8, i8* %62, align 1, !tbaa !5
  %64 = add nuw i64 %59, 1
  %65 = getelementptr inbounds [50 x i8], [50 x i8]* %3, i64 0, i64 %59
  store i8 %63, i8* %65, align 1, !tbaa !5
  %66 = sdiv i64 %60, %28
  %67 = icmp eq i64 %66, 0
  br i1 %67, label %68, label %58, !llvm.loop !12

68:                                               ; preds = %58
  %69 = call i64 @strlen(i8* noundef nonnull %8) #9
  %70 = trunc i64 %69 to i32
  %71 = icmp sgt i32 %70, 0
  br i1 %71, label %72, label %84

72:                                               ; preds = %68
  %73 = and i64 %69, 4294967295
  br label %74

74:                                               ; preds = %72, %74
  %75 = phi i64 [ %73, %72 ], [ %83, %74 ]
  %76 = phi i32 [ %70, %72 ], [ %77, %74 ]
  %77 = add nsw i32 %76, -1
  %78 = zext i32 %77 to i64
  %79 = getelementptr inbounds [50 x i8], [50 x i8]* %3, i64 0, i64 %78
  %80 = load i8, i8* %79, align 1, !tbaa !5
  call void @llvm.lifetime.start.p0i8(i64 1, i8* nonnull %1)
  store i8 %80, i8* %1, align 1, !tbaa !5
  %81 = call nonnull align 8 dereferenceable(8) %"class.std::basic_ostream"* @_ZSt16__ostream_insertIcSt11char_traitsIcEERSt13basic_ostreamIT_T0_ES6_PKS3_l(%"class.std::basic_ostream"* nonnull align 8 dereferenceable(8) @_ZSt4cout, i8* nonnull %1, i64 1)
  call void @llvm.lifetime.end.p0i8(i64 1, i8* nonnull %1)
  %82 = icmp sgt i64 %75, 1
  %83 = add nsw i64 %75, -1
  br i1 %82, label %74, label %84, !llvm.loop !13

84:                                               ; preds = %74, %68
  call void @llvm.lifetime.end.p0i8(i64 4, i8* nonnull %11) #8
  call void @llvm.lifetime.end.p0i8(i64 4, i8* nonnull %10) #8
  call void @llvm.lifetime.end.p0i8(i64 36, i8* nonnull %9) #8
  call void @llvm.lifetime.end.p0i8(i64 50, i8* nonnull %8) #8
  call void @llvm.lifetime.end.p0i8(i64 50, i8* nonnull %7) #8
  ret i32 0
}

; Function Attrs: argmemonly mustprogress nofree nosync nounwind willreturn
declare void @llvm.lifetime.start.p0i8(i64 immarg, i8* nocapture) #4

; Function Attrs: argmemonly mustprogress nofree nounwind willreturn writeonly
declare void @llvm.memset.p0i8.i64(i8* nocapture writeonly, i8, i64, i1 immarg) #5

declare nonnull align 8 dereferenceable(16) %"class.std::basic_istream"* @_ZNSirsERi(%"class.std::basic_istream"* nonnull align 8 dereferenceable(16), i32* nonnull align 4 dereferenceable(4)) local_unnamed_addr #0

; Function Attrs: argmemonly mustprogress nofree nounwind readonly willreturn
declare i64 @strlen(i8* nocapture) local_unnamed_addr #6

; Function Attrs: argmemonly mustprogress nofree nosync nounwind willreturn
declare void @llvm.lifetime.end.p0i8(i64 immarg, i8* nocapture) #4

declare void @_ZSt17__istream_extractRSiPcl(%"class.std::basic_istream"* nonnull align 8 dereferenceable(16), i8*, i64) local_unnamed_addr #0

declare nonnull align 8 dereferenceable(8) %"class.std::basic_ostream"* @_ZSt16__ostream_insertIcSt11char_traitsIcEERSt13basic_ostreamIT_T0_ES6_PKS3_l(%"class.std::basic_ostream"* nonnull align 8 dereferenceable(8), i8*, i64) local_unnamed_addr #0

; Function Attrs: sspstrong uwtable
define internal void @_GLOBAL__sub_I_1774.cpp() #7 section ".text.startup" {
  tail call void @_ZNSt8ios_base4InitC1Ev(%"class.std::ios_base::Init"* nonnull align 1 dereferenceable(1) @_ZStL8__ioinit)
  %1 = tail call i32 @__cxa_atexit(void (i8*)* bitcast (void (%"class.std::ios_base::Init"*)* @_ZNSt8ios_base4InitD1Ev to void (i8*)*), i8* getelementptr inbounds (%"class.std::ios_base::Init", %"class.std::ios_base::Init"* @_ZStL8__ioinit, i64 0, i32 0), i8* nonnull @__dso_handle) #8
  ret void
}


!llvm.module.flags = !{!0, !1, !2, !3}
!llvm.ident = !{!4}

!0 = !{i32 1, !"wchar_size", i32 4}
!1 = !{i32 7, !"PIC Level", i32 2}
!2 = !{i32 7, !"PIE Level", i32 2}
!3 = !{i32 7, !"uwtable", i32 1}
!4 = !{!"clang version 13.0.0"}
!5 = !{!6, !6, i64 0}
!6 = !{!"omnipotent char", !7, i64 0}
!7 = !{!"Simple C++ TBAA"}
!8 = !{!9, !9, i64 0}
!9 = !{!"int", !6, i64 0}
!10 = distinct !{!10, !11}
!11 = !{!"llvm.loop.mustprogress"}
!12 = distinct !{!12, !11}
!13 = distinct !{!13, !11}
